target datalayout = "e-m:e-p270:32:32-p271:32:32-p272:64:64-i64:64-i128:128-f80:128-n8:16:32:64-S128"
target triple = "x86_64-pc-linux-gnu"

%struct.tvb_ops = type { i64, ptr, ptr, ptr, ptr, ptr, ptr, ptr }
%struct.tvb_composite = type { %struct.tvbuff, %struct.tvb_comp_t }
%struct.tvbuff = type { ptr, ptr, i8, i32, ptr, ptr, i32, i32, i32, i32 }
%struct.tvb_comp_t = type { ptr, ptr, ptr, i32 }

@tvb_composite_ops = internal constant %struct.tvb_ops { i64 88, ptr @composite_free, ptr @composite_offset, ptr @composite_get_ptr, ptr @composite_memcpy, ptr null, ptr null, ptr null }, align 8

; Function Attrs: null_pointer_is_valid sspstrong uwtable
define ptr @tvb_new_composite() #0 {
  %1 = alloca ptr, align 8
  %2 = alloca ptr, align 8
  %3 = alloca ptr, align 8
  call void @llvm.lifetime.start.p0(i64 8, ptr %1) #8
  %4 = call ptr @tvb_new(ptr noundef @tvb_composite_ops)
  store ptr %4, ptr %1, align 8
  call void @llvm.lifetime.start.p0(i64 8, ptr %2) #8
  %5 = load ptr, ptr %1, align 8
  store ptr %5, ptr %2, align 8
  call void @llvm.lifetime.start.p0(i64 8, ptr %3) #8
  %6 = load ptr, ptr %2, align 8
  %7 = getelementptr inbounds nuw %struct.tvb_composite, ptr %6, i32 0, i32 1
  store ptr %7, ptr %3, align 8
  %8 = call ptr @g_queue_new()
  %9 = load ptr, ptr %3, align 8
  %10 = getelementptr inbounds nuw %struct.tvb_comp_t, ptr %9, i32 0, i32 0
  store ptr %8, ptr %10, align 8
  %11 = load ptr, ptr %3, align 8
  %12 = getelementptr inbounds nuw %struct.tvb_comp_t, ptr %11, i32 0, i32 1
  store ptr null, ptr %12, align 8
  %13 = load ptr, ptr %3, align 8
  %14 = getelementptr inbounds nuw %struct.tvb_comp_t, ptr %13, i32 0, i32 2
  store ptr null, ptr %14, align 8
  %15 = load ptr, ptr %3, align 8
  %16 = getelementptr inbounds nuw %struct.tvb_comp_t, ptr %15, i32 0, i32 3
  store i32 0, ptr %16, align 8
  %17 = load ptr, ptr %1, align 8
  call void @llvm.lifetime.end.p0(i64 8, ptr %3) #8
  call void @llvm.lifetime.end.p0(i64 8, ptr %2) #8
  call void @llvm.lifetime.end.p0(i64 8, ptr %1) #8
  ret ptr %17
}