; Function Attrs: null_pointer_is_valid sspstrong uwtable
define ptr @tvb_new_composite() local_unnamed_addr #0 {
  %1 = tail call ptr @tvb_new(ptr noundef nonnull @tvb_composite_ops)
  %2 = getelementptr inbounds nuw i8, ptr %1, i64 56
  %3 = tail call ptr @g_queue_new()
  store ptr %3, ptr %2, align 8
  %4 = getelementptr inbounds nuw i8, ptr %1, i64 64
  tail call void @llvm.memset.p0.i64(ptr noundef nonnull align 8 dereferenceable(20) %4, i8 0, i64 20, i1 false)
  ret ptr %1
}